target datalayout = "e-m:e-p270:32:32-p271:32:32-p272:64:64-i64:64-i128:128-f80:128-n8:16:32:64-S128"
target triple = "x86_64-pc-linux-gnu"

%struct.ossl_ex_data_global_st = type { ptr, [18 x %struct.ex_callbacks_st] }
%struct.ex_callbacks_st = type { ptr }

; Function Attrs: nounwind uwtable
define i32 @ossl_do_ex_data_init(ptr noundef %0) #0 {
  %2 = alloca i32, align 4
  %3 = alloca ptr, align 8
  %4 = alloca ptr, align 8
  %5 = alloca i32, align 4
  store ptr %0, ptr %3, align 8, !tbaa !3
  call void @llvm.lifetime.start.p0(i64 8, ptr %4) #4
  %6 = load ptr, ptr %3, align 8, !tbaa !3
  %7 = call ptr @ossl_lib_ctx_get_ex_data_global(ptr noundef %6)
  store ptr %7, ptr %4, align 8, !tbaa !8
  %8 = load ptr, ptr %4, align 8, !tbaa !8
  %9 = icmp eq ptr %8, null
  br i1 %9, label %10, label %11

10:                                               ; preds = %1
  store i32 0, ptr %2, align 4
  store i32 1, ptr %5, align 4
  br label %20

11:                                               ; preds = %1
  %12 = call ptr @CRYPTO_THREAD_lock_new()
  %13 = load ptr, ptr %4, align 8, !tbaa !8
  %14 = getelementptr inbounds nuw %struct.ossl_ex_data_global_st, ptr %13, i32 0, i32 0
  store ptr %12, ptr %14, align 8, !tbaa !10
  %15 = load ptr, ptr %4, align 8, !tbaa !8
  %16 = getelementptr inbounds nuw %struct.ossl_ex_data_global_st, ptr %15, i32 0, i32 0
  %17 = load ptr, ptr %16, align 8, !tbaa !10
  %18 = icmp ne ptr %17, null
  %19 = zext i1 %18 to i32
  store i32 %19, ptr %2, align 4
  store i32 1, ptr %5, align 4
  br label %20

20:                                               ; preds = %11, %10
  call void @llvm.lifetime.end.p0(i64 8, ptr %4) #4
  %21 = load i32, ptr %2, align 4
  ret i32 %21
}