; Function Attrs: nounwind uwtable
define range(i32 0, 2) i32 @ossl_do_ex_data_init(ptr noundef %0) local_unnamed_addr #0 {
  %2 = tail call ptr @ossl_lib_ctx_get_ex_data_global(ptr noundef %0) #9
  %3 = icmp eq ptr %2, null
  br i1 %3, label %8, label %4

4:                                                ; preds = %1
  %5 = tail call ptr @CRYPTO_THREAD_lock_new() #9
  store ptr %5, ptr %2, align 8, !tbaa !3
  %6 = icmp ne ptr %5, null
  %7 = zext i1 %6 to i32
  br label %8

8:                                                ; preds = %1, %4
  %.0 = phi i32 [ %7, %4 ], [ 0, %1 ]
  ret i32 %.0
}